(dp1
S'133'
p2
(lp3
(dp4
S'difficult'
p5
I0
sS'pose'
p6
S'Unspecified'
p7
sS'name'
p8
S'nose_out'
p9
sS'bbox'
p10
(lp11
I233
aI95
aI417
aI314
asS'truncated'
p12
I0
sa(dp13
g5
I0
sg6
S'Unspecified'
p14
sg8
S'without_mask'
p15
sg10
(lp16
I13
aI196
aI88
aI306
asg12
I0
sasS'114'
p17
(lp18
(dp19
g5
I0
sg6
S'Unspecified'
p20
sg8
S'nose_out'
p21
sg10
(lp22
I576
aI137
aI799
aI430
asg12
I0
sasS'116'
p23
(lp24
(dp25
g5
I0
sg6
S'Unspecified'
p26
sg8
S'nose_out'
p27
sg10
(lp28
I193
aI55
aI423
aI333
asg12
I0
sasS'65'
p29
(lp30
(dp31
g5
I0
sg6
S'Unspecified'
p32
sg8
S'without_mask'
p33
sg10
(lp34
I355
aI233
aI816
aI740
asg12
I0
sasS'83'
p35
(lp36
(dp37
g5
I0
sg6
S'Unspecified'
p38
sg8
S'without_mask'
p39
sg10
(lp40
I47
aI115
aI191
aI284
asg12
I0
sa(dp41
g5
I0
sg6
S'Unspecified'
p42
sg8
S'without_mask'
p43
sg10
(lp44
I324
aI129
aI444
aI291
asg12
I0
sa(dp45
g5
I0
sg6
S'Unspecified'
p46
sg8
S'without_mask'
p47
sg10
(lp48
I564
aI122
aI686
aI272
asg12
I0
sa(dp49
g5
I0
sg6
S'Unspecified'
p50
sg8
S'without_mask'
p51
sg10
(lp52
I808
aI121
aI948
aI282
asg12
I0
sasS'119'
p53
(lp54
(dp55
g5
I0
sg6
S'Unspecified'
p56
sg8
S'nose_out'
p57
sg10
(lp58
I429
aI146
aI792
aI576
asg12
I0
sasS'53'
p59
(lp60
(dp61
g5
I0
sg6
S'Unspecified'
p62
sg8
S'without_mask'
p63
sg10
(lp64
I590
aI504
aI1752
aI1825
asg12
I0
sasS'86'
p65
(lp66
(dp67
g5
I0
sg6
S'Unspecified'
p68
sg8
S'without_mask'
p69
sg10
(lp70
I103
aI98
aI191
aI191
asg12
I0
sa(dp71
g5
I0
sg6
S'Unspecified'
p72
sg8
S'without_mask'
p73
sg10
(lp74
I376
aI109
aI462
aI209
asg12
I0
sasS'44'
p75
(lp76
(dp77
g5
I0
sg6
S'Unspecified'
p78
sg8
S'with_mask'
p79
sg10
(lp80
I470
aI127
aI679
aI331
asg12
I0
sasS'43'
p81
(lp82
(dp83
g5
I0
sg6
S'Unspecified'
p84
sg8
S'with_mask'
p85
sg10
(lp86
I235
aI132
aI383
aI281
asg12
I0
sasS'41'
p87
(lp88
(dp89
g5
I0
sg6
S'Unspecified'
p90
sg8
S'with_mask'
p91
sg10
(lp92
I99
aI161
aI248
aI328
asg12
I0
sa(dp93
g5
I0
sg6
S'Unspecified'
p94
sg8
S'with_mask'
p95
sg10
(lp96
I426
aI184
aI578
aI355
asg12
I0
sa(dp97
g5
I0
sg6
S'Unspecified'
p98
sg8
S'with_mask'
p99
sg10
(lp100
I691
aI180
aI913
aI373
asg12
I0
sasS'7'
(lp101
(dp102
g5
I0
sg6
S'Unspecified'
p103
sg8
S'with_mask'
p104
sg10
(lp105
I395
aI188
aI913
aI779
asg12
I0
sasS'6'
(lp106
(dp107
g5
I0
sg6
S'Unspecified'
p108
sg8
S'with_mask'
p109
sg10
(lp110
I674
aI351
aI1235
aI1029
asg12
I0
sasS'77'
p111
(lp112
(dp113
g5
I0
sg6
S'Unspecified'
p114
sg8
S'without_mask'
p115
sg10
(lp116
I1461
aI401
aI2499
aI1698
asg12
I0
sasS'123'
p117
(lp118
(dp119
g5
I0
sg6
S'Unspecified'
p120
sg8
S'nose_out'
p121
sg10
(lp122
I316
aI490
aI752
aI1057
asg12
I0
sasS'70'
p123
(lp124
(dp125
g5
I0
sg6
S'Unspecified'
p126
sg8
S'without_mask'
p127
sg10
(lp128
I320
aI216
aI868
aI853
asg12
I0
sasS'128'
p129
(lp130
(dp131
g5
I0
sg6
S'Unspecified'
p132
sg8
S'nose_out'
p133
sg10
(lp134
I114
aI163
aI359
aI423
asg12
I0
sa(dp135
g5
I0
sg6
S'Unspecified'
p136
sg8
S'nose_out'
p137
sg10
(lp138
I134
aI1114
aI410
aI1419
asg12
I0
sasS'100'
p139
(lp140
(dp141
g5
I0
sg6
S'Unspecified'
p142
sg8
S'without_mask'
p143
sg10
(lp144
I380
aI198
aI719
aI609
asg12
I0
sasS'92'
p145
(lp146
(dp147
g5
I0
sg6
S'Unspecified'
p148
sg8
S'without_mask'
p149
sg10
(lp150
I269
aI342
aI394
aI459
asg12
I0
sa(dp151
g5
I0
sg6
S'Unspecified'
p152
sg8
S'without_mask'
p153
sg10
(lp154
I617
aI361
aI745
aI493
asg12
I0
sa(dp155
g5
I0
sg6
S'Unspecified'
p156
sg8
S'without_mask'
p157
sg10
(lp158
I902
aI234
aI1037
aI370
asg12
I0
sa(dp159
g5
I0
sg6
S'Unspecified'
p160
sg8
S'without_mask'
p161
sg10
(lp162
I1245
aI301
aI1366
aI444
asg12
I0
sasS'95'
p163
(lp164
(dp165
g5
I0
sg6
S'Unspecified'
p166
sg8
S'without_mask'
p167
sg10
(lp168
I234
aI61
aI399
aI237
asg12
I0
sa(dp169
g5
I0
sg6
S'Unspecified'
p170
sg8
S'without_mask'
p171
sg10
(lp172
I853
aI49
aI1000
aI192
asg12
I0
sasS'104'
p173
(lp174
(dp175
g5
I0
sg6
S'Unspecified'
p176
sg8
S'nose_out'
p177
sg10
(lp178
I350
aI22
aI543
aI258
asg12
I0
sasS'96'
p179
(lp180
(dp181
g5
I0
sg6
S'Unspecified'
p182
sg8
S'without_mask'
p183
sg10
(lp184
I102
aI42
aI382
aI396
asg12
I0
sa(dp185
g5
I0
sg6
S'Unspecified'
p186
sg8
S'without_mask'
p187
sg10
(lp188
I589
aI77
aI911
aI457
asg12
I0
sasS'15'
p189
(lp190
(dp191
g5
I0
sg6
S'Unspecified'
p192
sg8
S'with_mask'
p193
sg10
(lp194
I201
aI77
aI474
aI362
asg12
I0
sasS'17'
p195
(lp196
(dp197
g5
I0
sg6
S'Unspecified'
p198
sg8
S'with_mask'
p199
sg10
(lp200
I196
aI14
aI580
aI493
asg12
I0
sasS'18'
p201
(lp202
(dp203
g5
I0
sg6
S'Unspecified'
p204
sg8
S'with_mask'
p205
sg10
(lp206
I253
aI68
aI438
aI300
asg12
I0
sasS'30'
p207
(lp208
(dp209
g5
I0
sg6
S'Unspecified'
p210
sg8
S'with_mask'
p211
sg10
(lp212
I199
aI93
aI310
aI205
asg12
I0
sasS'35'
p213
(lp214
(dp215
g5
I0
sg6
S'Unspecified'
p216
sg8
S'with_mask'
p217
sg10
(lp218
I46
aI47
aI183
aI191
asg12
I0
sasS'47'
p219
(lp220
(dp221
g5
I0
sg6
S'Unspecified'
p222
sg8
S'with_mask'
p223
sg10
(lp224
I305
aI87
aI637
aI518
asg12
I0
sas.